; Function Attrs: inlinehint mustprogress uwtable
define internal void @"_ZZN4lean27initialize_libuv_udp_socketEvEN3$_08__invokeEPvP11lean_object"(ptr noundef readonly captures(none) %0, ptr noundef %1) #10 align 2 {
  %3 = getelementptr inbounds nuw i8, ptr %0, i64 8
  %4 = load ptr, ptr %3, align 8, !tbaa !3
  %.not.i = icmp eq ptr %4, null
  br i1 %.not.i, label %16, label %5

5:                                                ; preds = %2
  %6 = ptrtoint ptr %1 to i64
  %7 = and i64 %6, 1
  %.not1.i = icmp eq i64 %7, 0
  br i1 %.not1.i, label %8, label %_ZL8lean_incP11lean_object.exit10.i

8:                                                ; preds = %5
  %.val.i.i = load i32, ptr %1, align 4, !tbaa !36
  %9 = icmp sgt i32 %.val.i.i, 0
  br i1 %9, label %10, label %12, !prof !9

10:                                               ; preds = %8
  %11 = add nuw nsw i32 %.val.i.i, 1
  store i32 %11, ptr %1, align 4, !tbaa !36
  br label %_ZL8lean_incP11lean_object.exit10.i

12:                                               ; preds = %8
  %.not.i.i = icmp eq i32 %.val.i.i, 0
  br i1 %.not.i.i, label %_ZL8lean_incP11lean_object.exit10.i, label %13

13:                                               ; preds = %12
  tail call void @lean_inc_ref_cold(ptr noundef nonnull %1)
  %.pre.i = load ptr, ptr %3, align 8, !tbaa !3
  br label %_ZL8lean_incP11lean_object.exit10.i

_ZL8lean_incP11lean_object.exit10.i:              ; preds = %13, %12, %10, %5
  %14 = phi ptr [ %.pre.i, %13 ], [ %4, %12 ], [ %4, %10 ], [ %4, %5 ]
  %15 = tail call ptr @lean_apply_1(ptr noundef %1, ptr noundef %14)
  br label %16

16:                                               ; preds = %_ZL8lean_incP11lean_object.exit10.i, %2
  %17 = getelementptr inbounds nuw i8, ptr %0, i64 16
  %18 = load ptr, ptr %17, align 8, !tbaa !19
  %.not9.i = icmp eq ptr %18, null
  br i1 %.not9.i, label %"_ZZN4lean27initialize_libuv_udp_socketEvENK3$_0clEPvP11lean_object.exit", label %19

19:                                               ; preds = %16
  %20 = ptrtoint ptr %1 to i64
  %21 = and i64 %20, 1
  %.not2.i = icmp eq i64 %21, 0
  br i1 %.not2.i, label %22, label %_ZL8lean_incP11lean_object.exit.i

22:                                               ; preds = %19
  %.val.i11.i = load i32, ptr %1, align 4, !tbaa !36
  %23 = icmp sgt i32 %.val.i11.i, 0
  br i1 %23, label %24, label %26, !prof !9

24:                                               ; preds = %22
  %25 = add nuw nsw i32 %.val.i11.i, 1
  store i32 %25, ptr %1, align 4, !tbaa !36
  br label %_ZL8lean_incP11lean_object.exit.i

26:                                               ; preds = %22
  %.not.i12.i = icmp eq i32 %.val.i11.i, 0
  br i1 %.not.i12.i, label %_ZL8lean_incP11lean_object.exit.i, label %27

27:                                               ; preds = %26
  tail call void @lean_inc_ref_cold(ptr noundef nonnull %1)
  %.pre3.i = load ptr, ptr %17, align 8, !tbaa !19
  br label %_ZL8lean_incP11lean_object.exit.i

_ZL8lean_incP11lean_object.exit.i:                ; preds = %27, %26, %24, %19
  %28 = phi ptr [ %.pre3.i, %27 ], [ %18, %26 ], [ %18, %24 ], [ %18, %19 ]
  %29 = tail call ptr @lean_apply_1(ptr noundef %1, ptr noundef %28)
  br label %"_ZZN4lean27initialize_libuv_udp_socketEvENK3$_0clEPvP11lean_object.exit"

"_ZZN4lean27initialize_libuv_udp_socketEvENK3$_0clEPvP11lean_object.exit": ; preds = %16, %_ZL8lean_incP11lean_object.exit.i
  ret void
}